target datalayout = "e-m:e-p270:32:32-p271:32:32-p272:64:64-i64:64-i128:128-f80:128-n8:16:32:64-S128"
target triple = "x86_64-pc-linux-gnu"

; Function Attrs: inlinehint mustprogress nounwind uwtable
define linkonce_odr noundef zeroext i1 @_ZN6google8protobuf13ascii_isdigitEc(i8 noundef signext %0) #8 comdat {
  %2 = alloca i8, align 1
  store i8 %0, ptr %2, align 1, !tbaa !41
  %3 = load i8, ptr %2, align 1, !tbaa !41
  %4 = sext i8 %3 to i32
  %5 = icmp sle i32 48, %4
  br i1 %5, label %6, label %10

6:                                                ; preds = %1
  %7 = load i8, ptr %2, align 1, !tbaa !41
  %8 = sext i8 %7 to i32
  %9 = icmp sle i32 %8, 57
  br label %10

10:                                               ; preds = %6, %1
  %11 = phi i1 [ false, %1 ], [ %9, %6 ]
  ret i1 %11
}

; Function Attrs: mustprogress uwtable
define internal noundef ptr @_ZN6google8protobuf8internal12_GLOBAL__N_18ParseIntEPKciiiPi(ptr noundef %0, i32 noundef %1, i32 noundef %2, i32 noundef %3, ptr noundef %4) #4 {
  %6 = alloca ptr, align 8
  %7 = alloca ptr, align 8
  %8 = alloca i32, align 4
  %9 = alloca i32, align 4
  %10 = alloca i32, align 4
  %11 = alloca ptr, align 8
  %12 = alloca i32, align 4
  %13 = alloca i32, align 4
  %14 = alloca i32, align 4
  store ptr %0, ptr %7, align 8, !tbaa !39
  store i32 %1, ptr %8, align 4, !tbaa !10
  store i32 %2, ptr %9, align 4, !tbaa !10
  store i32 %3, ptr %10, align 4, !tbaa !10
  store ptr %4, ptr %11, align 8, !tbaa !33
  %15 = load ptr, ptr %7, align 8, !tbaa !39
  %16 = load i8, ptr %15, align 1, !tbaa !41
  %17 = call noundef zeroext i1 @_ZN6google8protobuf13ascii_isdigitEc(i8 noundef signext %16)
  br i1 %17, label %19, label %18

18:                                               ; preds = %5
  store ptr null, ptr %6, align 8
  br label %59

19:                                               ; preds = %5
  call void @llvm.lifetime.start.p0(i64 4, ptr %12) #3
  store i32 0, ptr %12, align 4, !tbaa !10
  call void @llvm.lifetime.start.p0(i64 4, ptr %13) #3
  store i32 0, ptr %13, align 4, !tbaa !10
  br label %20

20:                                               ; preds = %39, %19
  %21 = load i32, ptr %13, align 4, !tbaa !10
  %22 = load i32, ptr %8, align 4, !tbaa !10
  %23 = icmp slt i32 %21, %22
  br i1 %23, label %25, label %24

24:                                               ; preds = %20
  store i32 2, ptr %14, align 4
  br label %44

25:                                               ; preds = %20
  %26 = load ptr, ptr %7, align 8, !tbaa !39
  %27 = load i8, ptr %26, align 1, !tbaa !41
  %28 = call noundef zeroext i1 @_ZN6google8protobuf13ascii_isdigitEc(i8 noundef signext %27)
  br i1 %28, label %29, label %37

29:                                               ; preds = %25
  %30 = load i32, ptr %12, align 4, !tbaa !10
  %31 = mul nsw i32 %30, 10
  %32 = load ptr, ptr %7, align 8, !tbaa !39
  %33 = load i8, ptr %32, align 1, !tbaa !41
  %34 = sext i8 %33 to i32
  %35 = sub nsw i32 %34, 48
  %36 = add nsw i32 %31, %35
  store i32 %36, ptr %12, align 4, !tbaa !10
  br label %38

37:                                               ; preds = %25
  store i32 2, ptr %14, align 4
  br label %44

38:                                               ; preds = %29
  br label %39

39:                                               ; preds = %38
  %40 = load i32, ptr %13, align 4, !tbaa !10
  %41 = add nsw i32 %40, 1
  store i32 %41, ptr %13, align 4, !tbaa !10
  %42 = load ptr, ptr %7, align 8, !tbaa !39
  %43 = getelementptr inbounds nuw i8, ptr %42, i32 1
  store ptr %43, ptr %7, align 8, !tbaa !39
  br label %20, !llvm.loop !42

44:                                               ; preds = %37, %24
  call void @llvm.lifetime.end.p0(i64 4, ptr %13) #3
  br label %45

45:                                               ; preds = %44
  %46 = load i32, ptr %12, align 4, !tbaa !10
  %47 = load i32, ptr %9, align 4, !tbaa !10
  %48 = icmp sge i32 %46, %47
  br i1 %48, label %49, label %57

49:                                               ; preds = %45
  %50 = load i32, ptr %12, align 4, !tbaa !10
  %51 = load i32, ptr %10, align 4, !tbaa !10
  %52 = icmp sle i32 %50, %51
  br i1 %52, label %53, label %57

53:                                               ; preds = %49
  %54 = load i32, ptr %12, align 4, !tbaa !10
  %55 = load ptr, ptr %11, align 8, !tbaa !33
  store i32 %54, ptr %55, align 4, !tbaa !10
  %56 = load ptr, ptr %7, align 8, !tbaa !39
  store ptr %56, ptr %6, align 8
  store i32 1, ptr %14, align 4
  br label %58

57:                                               ; preds = %49, %45
  store ptr null, ptr %6, align 8
  store i32 1, ptr %14, align 4
  br label %58

58:                                               ; preds = %57, %53
  call void @llvm.lifetime.end.p0(i64 4, ptr %12) #3
  br label %59

59:                                               ; preds = %58, %18
  %60 = load ptr, ptr %6, align 8
  ret ptr %60
}

; Function Attrs: mustprogress uwtable
define internal noundef ptr @_ZN6google8protobuf8internal12_GLOBAL__N_119ParseTimezoneOffsetEPKcPl(ptr noundef %0, ptr noundef %1) #4 {
  %3 = alloca ptr, align 8
  %4 = alloca ptr, align 8
  %5 = alloca ptr, align 8
  %6 = alloca i32, align 4
  %7 = alloca i32, align 4
  %8 = alloca i32, align 4
  store ptr %0, ptr %4, align 8, !tbaa !39
  store ptr %1, ptr %5, align 8, !tbaa !28
  call void @llvm.lifetime.start.p0(i64 4, ptr %6) #3
  %9 = load ptr, ptr %4, align 8, !tbaa !39
  %10 = call noundef ptr @_ZN6google8protobuf8internal12_GLOBAL__N_18ParseIntEPKciiiPi(ptr noundef %9, i32 noundef 2, i32 noundef 0, i32 noundef 23, ptr noundef %6)
  store ptr %10, ptr %4, align 8, !tbaa !39
  %11 = icmp eq ptr %10, null
  br i1 %11, label %12, label %13

12:                                               ; preds = %2
  store ptr null, ptr %3, align 8
  store i32 1, ptr %7, align 4
  br label %35

13:                                               ; preds = %2
  %14 = load ptr, ptr %4, align 8, !tbaa !39
  %15 = getelementptr inbounds nuw i8, ptr %14, i32 1
  store ptr %15, ptr %4, align 8, !tbaa !39
  %16 = load i8, ptr %14, align 1, !tbaa !41
  %17 = sext i8 %16 to i32
  %18 = icmp ne i32 %17, 58
  br i1 %18, label %19, label %20

19:                                               ; preds = %13
  store ptr null, ptr %3, align 8
  store i32 1, ptr %7, align 4
  br label %35

20:                                               ; preds = %13
  call void @llvm.lifetime.start.p0(i64 4, ptr %8) #3
  %21 = load ptr, ptr %4, align 8, !tbaa !39
  %22 = call noundef ptr @_ZN6google8protobuf8internal12_GLOBAL__N_18ParseIntEPKciiiPi(ptr noundef %21, i32 noundef 2, i32 noundef 0, i32 noundef 59, ptr noundef %8)
  store ptr %22, ptr %4, align 8, !tbaa !39
  %23 = icmp eq ptr %22, null
  br i1 %23, label %24, label %25

24:                                               ; preds = %20
  store ptr null, ptr %3, align 8
  store i32 1, ptr %7, align 4
  br label %34

25:                                               ; preds = %20
  %26 = load i32, ptr %6, align 4, !tbaa !10
  %27 = mul nsw i32 %26, 60
  %28 = load i32, ptr %8, align 4, !tbaa !10
  %29 = add nsw i32 %27, %28
  %30 = mul nsw i32 %29, 60
  %31 = sext i32 %30 to i64
  %32 = load ptr, ptr %5, align 8, !tbaa !28
  store i64 %31, ptr %32, align 8, !tbaa !3
  %33 = load ptr, ptr %4, align 8, !tbaa !39
  store ptr %33, ptr %3, align 8
  store i32 1, ptr %7, align 4
  br label %34

34:                                               ; preds = %25, %24
  call void @llvm.lifetime.end.p0(i64 4, ptr %8) #3
  br label %35

35:                                               ; preds = %34, %19, %12
  call void @llvm.lifetime.end.p0(i64 4, ptr %6) #3
  %36 = load ptr, ptr %3, align 8
  ret ptr %36
}