; Function Attrs: mustprogress nofree norecurse nosync nounwind memory(argmem: readwrite) uwtable
define internal fastcc noundef ptr @_ZN6google8protobuf8internal12_GLOBAL__N_119ParseTimezoneOffsetEPKcPl(ptr noundef nonnull readonly %0, ptr noundef nonnull writeonly captures(none) %1) unnamed_addr #5 {
  %3 = load i8, ptr %0, align 1, !tbaa !30
  %4 = add i8 %3, -48
  %5 = icmp ult i8 %4, 10
  br i1 %5, label %.preheader.preheader.i, label %_ZN6google8protobuf8internal12_GLOBAL__N_18ParseIntEPKciiiPi.exit.thread

.preheader.preheader.i:                           ; preds = %2
  %scevgep.i = getelementptr i8, ptr %0, i64 2
  br label %.preheader.i

.preheader.i:                                     ; preds = %9, %.preheader.preheader.i
  %.021.i = phi i32 [ %14, %9 ], [ 0, %.preheader.preheader.i ]
  %.01520.i = phi i32 [ %13, %9 ], [ 0, %.preheader.preheader.i ]
  %.01719.i = phi ptr [ %15, %9 ], [ %0, %.preheader.preheader.i ]
  %6 = load i8, ptr %.01719.i, align 1, !tbaa !30
  %7 = add i8 %6, -48
  %8 = icmp ult i8 %7, 10
  br i1 %8, label %9, label %16

9:                                                ; preds = %.preheader.i
  %10 = mul nsw i32 %.01520.i, 10
  %11 = zext nneg i8 %6 to i32
  %12 = add i32 %10, -48
  %13 = add i32 %12, %11
  %14 = add nuw nsw i32 %.021.i, 1
  %15 = getelementptr inbounds nuw i8, ptr %.01719.i, i64 1
  %exitcond.not.i = icmp eq i32 %14, 2
  br i1 %exitcond.not.i, label %16, label %.preheader.i, !llvm.loop !38

16:                                               ; preds = %9, %.preheader.i
  %.017.lcssa.i = phi ptr [ %.01719.i, %.preheader.i ], [ %scevgep.i, %9 ]
  %.015.lcssa.i = phi i32 [ %.01520.i, %.preheader.i ], [ %13, %9 ]
  %or.cond.i = icmp ugt i32 %.015.lcssa.i, 23
  %17 = icmp eq ptr %.017.lcssa.i, null
  %or.cond = or i1 %17, %or.cond.i
  br i1 %or.cond, label %_ZN6google8protobuf8internal12_GLOBAL__N_18ParseIntEPKciiiPi.exit.thread, label %18

18:                                               ; preds = %16
  %19 = load i8, ptr %.017.lcssa.i, align 1, !tbaa !30
  %.not = icmp eq i8 %19, 58
  br i1 %.not, label %20, label %_ZN6google8protobuf8internal12_GLOBAL__N_18ParseIntEPKciiiPi.exit.thread

20:                                               ; preds = %18
  %21 = getelementptr inbounds nuw i8, ptr %.017.lcssa.i, i64 1
  %22 = load i8, ptr %21, align 1, !tbaa !30
  %23 = add i8 %22, -48
  %24 = icmp ult i8 %23, 10
  br i1 %24, label %.preheader.preheader.i9, label %_ZN6google8protobuf8internal12_GLOBAL__N_18ParseIntEPKciiiPi.exit.thread

.preheader.preheader.i9:                          ; preds = %20
  %scevgep.i10 = getelementptr i8, ptr %.017.lcssa.i, i64 3
  br label %.preheader.i11

.preheader.i11:                                   ; preds = %28, %.preheader.preheader.i9
  %.021.i12 = phi i32 [ %33, %28 ], [ 0, %.preheader.preheader.i9 ]
  %.01520.i13 = phi i32 [ %32, %28 ], [ 0, %.preheader.preheader.i9 ]
  %.01719.i14 = phi ptr [ %34, %28 ], [ %21, %.preheader.preheader.i9 ]
  %25 = load i8, ptr %.01719.i14, align 1, !tbaa !30
  %26 = add i8 %25, -48
  %27 = icmp ult i8 %26, 10
  br i1 %27, label %28, label %35

28:                                               ; preds = %.preheader.i11
  %29 = mul nsw i32 %.01520.i13, 10
  %30 = zext nneg i8 %25 to i32
  %31 = add i32 %29, -48
  %32 = add i32 %31, %30
  %33 = add nuw nsw i32 %.021.i12, 1
  %34 = getelementptr inbounds nuw i8, ptr %.01719.i14, i64 1
  %exitcond.not.i20 = icmp eq i32 %33, 2
  br i1 %exitcond.not.i20, label %35, label %.preheader.i11, !llvm.loop !38

35:                                               ; preds = %28, %.preheader.i11
  %.017.lcssa.i15 = phi ptr [ %.01719.i14, %.preheader.i11 ], [ %scevgep.i10, %28 ]
  %.015.lcssa.i16 = phi i32 [ %.01520.i13, %.preheader.i11 ], [ %32, %28 ]
  %or.cond.i19 = icmp ugt i32 %.015.lcssa.i16, 59
  %36 = icmp eq ptr %.017.lcssa.i15, null
  %or.cond29 = or i1 %36, %or.cond.i19
  br i1 %or.cond29, label %_ZN6google8protobuf8internal12_GLOBAL__N_18ParseIntEPKciiiPi.exit.thread, label %37

37:                                               ; preds = %35
  %38 = mul nuw nsw i32 %.015.lcssa.i, 60
  %39 = add nuw nsw i32 %.015.lcssa.i16, %38
  %40 = mul nuw nsw i32 %39, 60
  %41 = zext nneg i32 %40 to i64
  store i64 %41, ptr %1, align 8, !tbaa !22
  br label %_ZN6google8protobuf8internal12_GLOBAL__N_18ParseIntEPKciiiPi.exit.thread

_ZN6google8protobuf8internal12_GLOBAL__N_18ParseIntEPKciiiPi.exit.thread: ; preds = %35, %20, %16, %2, %37, %18
  %.0 = phi ptr [ null, %18 ], [ %.017.lcssa.i15, %37 ], [ null, %2 ], [ null, %16 ], [ null, %20 ], [ null, %35 ]
  ret ptr %.0
}